; Function Attrs: nounwind uwtable
define internal ptr @odict_or(ptr noundef %0, ptr noundef %1) #0 {
  %3 = getelementptr i8, ptr %0, i64 8
  %.val21 = load ptr, ptr %3, align 8, !tbaa !20
  %.not.i22 = icmp eq ptr %.val21, @PyODict_Type
  br i1 %.not.i22, label %PyObject_TypeCheck.exit.thread, label %PyObject_TypeCheck.exit

PyObject_TypeCheck.exit:                          ; preds = %2
  %4 = tail call i32 @PyType_IsSubtype(ptr noundef %.val21, ptr noundef nonnull @PyODict_Type) #8
  %.not24 = icmp eq i32 %4, 0
  %5 = getelementptr i8, ptr %1, i64 8
  %spec.select = select i1 %.not24, ptr %5, ptr %3
  %spec.select25 = select i1 %.not24, ptr %0, ptr %1
  br label %PyObject_TypeCheck.exit.thread

PyObject_TypeCheck.exit.thread:                   ; preds = %PyObject_TypeCheck.exit, %2
  %.015.in = phi ptr [ %3, %2 ], [ %spec.select, %PyObject_TypeCheck.exit ]
  %.014 = phi ptr [ %1, %2 ], [ %spec.select25, %PyObject_TypeCheck.exit ]
  %6 = getelementptr i8, ptr %.014, i64 8
  %.014.val = load ptr, ptr %6, align 8, !tbaa !20
  %7 = getelementptr i8, ptr %.014.val, i64 168
  %.val20 = load i64, ptr %7, align 8, !tbaa !54
  %8 = and i64 %.val20, 536870912
  %.not17 = icmp eq i64 %8, 0
  br i1 %.not17, label %Py_DECREF.exit, label %9

9:                                                ; preds = %PyObject_TypeCheck.exit.thread
  %.015 = load ptr, ptr %.015.in, align 8, !tbaa !20
  %10 = tail call ptr @PyObject_CallOneArg(ptr noundef %.015, ptr noundef nonnull %0) #8
  %.not18 = icmp eq ptr %10, null
  br i1 %.not18, label %Py_DECREF.exit, label %11

11:                                               ; preds = %9
  %12 = tail call fastcc i32 @mutablemapping_update_arg(ptr noundef nonnull %10, ptr noundef %1)
  %13 = icmp slt i32 %12, 0
  br i1 %13, label %14, label %Py_DECREF.exit

14:                                               ; preds = %11
  %15 = load i32, ptr %10, align 8, !tbaa !38
  %.not.i = icmp sgt i32 %15, -1
  br i1 %.not.i, label %16, label %Py_DECREF.exit

16:                                               ; preds = %14
  %17 = add nsw i32 %15, -1
  store i32 %17, ptr %10, align 8, !tbaa !38
  %18 = icmp eq i32 %17, 0
  br i1 %18, label %19, label %Py_DECREF.exit

19:                                               ; preds = %16
  tail call void @_Py_Dealloc(ptr noundef nonnull %10) #8
  br label %Py_DECREF.exit

Py_DECREF.exit:                                   ; preds = %19, %16, %14, %9, %11, %PyObject_TypeCheck.exit.thread
  %.0 = phi ptr [ @_Py_NotImplementedStruct, %PyObject_TypeCheck.exit.thread ], [ null, %9 ], [ %10, %11 ], [ null, %14 ], [ null, %16 ], [ null, %19 ]
  ret ptr %.0
}